target datalayout = "e-m:e-p270:32:32-p271:32:32-p272:64:64-i64:64-i128:128-f80:128-n8:16:32:64-S128"
target triple = "x86_64-unknown-linux-gnu"

%"class.OpenImageIO_v2_6_0::Vec3Param" = type { float, float, float }
%"class.OpenImageIO_v2_6_0::ustring" = type { ptr }
%"class.OpenImageIO_v2_6_0::pvt::TextureSystemImpl" = type <{ %"class.OpenImageIO_v2_6_0::TextureSystem", ptr, i8, [3 x i8], %"class.Imath_2_5::Matrix44", %"class.Imath_2_5::Matrix44", i8, i8, [2 x i8], i32, i32, %"class.boost::thread_specific_ptr.27", %"class.std::unique_ptr", i32, [4 x i8] }>
%"class.OpenImageIO_v2_6_0::TextureSystem" = type { ptr }
%"class.Imath_2_5::Matrix44" = type { [4 x [4 x float]] }
%"class.boost::thread_specific_ptr.27" = type { ptr }
%"class.std::unique_ptr" = type { %"struct.std::__uniq_ptr_data" }
%"struct.std::__uniq_ptr_data" = type { %"class.std::__uniq_ptr_impl" }
%"class.std::__uniq_ptr_impl" = type { %"class.std::tuple" }
%"class.std::tuple" = type { %"struct.std::_Tuple_impl" }
%"struct.std::_Tuple_impl" = type { %"struct.std::_Head_base.29" }
%"struct.std::_Head_base.29" = type { ptr }

; Function Attrs: mustprogress nounwind uwtable
define linkonce_odr void @_ZN18OpenImageIO_v2_6_07ustringD2Ev(ptr noundef nonnull align 8 dereferenceable(8) %this) unnamed_addr #1 comdat align 2 {
entry:
  %this.addr = alloca ptr, align 8
  store ptr %this, ptr %this.addr, align 8
  ret void
}

; Function Attrs: mustprogress uwtable
define linkonce_odr hidden noundef ptr @_ZN18OpenImageIO_v2_6_03pvt17TextureSystemImpl16find_texturefileENS_7ustringEPNS0_23ImageCachePerThreadInfoEPKNS_10TextureOptE(ptr noundef nonnull align 8 dereferenceable(184) %this, ptr noundef %filename, ptr noundef %thread_info, ptr noundef %options) #8 comdat align 2 personality ptr @__gxx_personality_v0 {
entry:
  %this.addr = alloca ptr, align 8
  %filename.indirect_addr = alloca ptr, align 8
  %thread_info.addr = alloca ptr, align 8
  %options.addr = alloca ptr, align 8
  %agg.tmp = alloca %"class.OpenImageIO_v2_6_0::ustring", align 8
  %exn.slot = alloca ptr, align 8
  %ehselector.slot = alloca i32, align 4
  store ptr %this, ptr %this.addr, align 8
  store ptr %filename, ptr %filename.indirect_addr, align 8
  store ptr %thread_info, ptr %thread_info.addr, align 8
  store ptr %options, ptr %options.addr, align 8
  %this1 = load ptr, ptr %this.addr, align 8
  %m_imagecache = getelementptr inbounds %"class.OpenImageIO_v2_6_0::pvt::TextureSystemImpl", ptr %this1, i32 0, i32 1
  %0 = load ptr, ptr %m_imagecache, align 8
  call void @_ZN18OpenImageIO_v2_6_07ustringC2ERKS0_(ptr noundef nonnull align 8 dereferenceable(8) %agg.tmp, ptr noundef nonnull align 8 dereferenceable(8) %filename) #5
  %1 = load ptr, ptr %thread_info.addr, align 8
  %call = invoke noundef ptr @_ZN18OpenImageIO_v2_6_03pvt14ImageCacheImpl9find_fileENS_7ustringEPNS0_23ImageCachePerThreadInfoEPFPNS_10ImageInputEvEPKNS_9ImageSpecEb(ptr noundef nonnull align 64 dereferenceable(25280) %0, ptr noundef %agg.tmp, ptr noundef %1, ptr noundef null, ptr noundef null, i1 noundef zeroext false)
          to label %invoke.cont unwind label %lpad

invoke.cont:                                      ; preds = %entry
  call void @_ZN18OpenImageIO_v2_6_07ustringD2Ev(ptr noundef nonnull align 8 dereferenceable(8) %agg.tmp) #5
  ret ptr %call

lpad:                                             ; preds = %entry
  %2 = landingpad { ptr, i32 }
          cleanup
  %3 = extractvalue { ptr, i32 } %2, 0
  store ptr %3, ptr %exn.slot, align 8
  %4 = extractvalue { ptr, i32 } %2, 1
  store i32 %4, ptr %ehselector.slot, align 4
  call void @_ZN18OpenImageIO_v2_6_07ustringD2Ev(ptr noundef nonnull align 8 dereferenceable(8) %agg.tmp) #5
  br label %eh.resume

eh.resume:                                        ; preds = %lpad
  %exn = load ptr, ptr %exn.slot, align 8
  %sel = load i32, ptr %ehselector.slot, align 4
  %lpad.val = insertvalue { ptr, i32 } poison, ptr %exn, 0
  %lpad.val2 = insertvalue { ptr, i32 } %lpad.val, i32 %sel, 1
  resume { ptr, i32 } %lpad.val2
}

; Function Attrs: mustprogress nounwind uwtable
define linkonce_odr void @_ZN18OpenImageIO_v2_6_07ustringC2ERKS0_(ptr noundef nonnull align 8 dereferenceable(8) %this, ptr noundef nonnull align 8 dereferenceable(8) %str) unnamed_addr #1 comdat align 2 {
entry:
  %this.addr = alloca ptr, align 8
  %str.addr = alloca ptr, align 8
  store ptr %this, ptr %this.addr, align 8
  store ptr %str, ptr %str.addr, align 8
  %this1 = load ptr, ptr %this.addr, align 8
  %m_chars = getelementptr inbounds %"class.OpenImageIO_v2_6_0::ustring", ptr %this1, i32 0, i32 0
  %0 = load ptr, ptr %str.addr, align 8
  %m_chars2 = getelementptr inbounds %"class.OpenImageIO_v2_6_0::ustring", ptr %0, i32 0, i32 0
  %1 = load ptr, ptr %m_chars2, align 8
  store ptr %1, ptr %m_chars, align 8
  ret void
}

; Function Attrs: mustprogress uwtable
define hidden noundef zeroext i1 @_ZN18OpenImageIO_v2_6_03pvt17TextureSystemImpl9texture3dENS_7ustringERNS_10TextureOptENS_9Vec3ParamIfEES6_S6_S6_iPfS7_S7_S7_(ptr noundef nonnull align 8 dereferenceable(184) %this, ptr noundef %filename, ptr noundef nonnull align 8 dereferenceable(104) %options, <2 x float> %P.coerce0, float %P.coerce1, <2 x float> %dPdx.coerce0, float %dPdx.coerce1, <2 x float> %dPdy.coerce0, float %dPdy.coerce1, <2 x float> %dPdz.coerce0, float %dPdz.coerce1, i32 noundef %nchannels, ptr noundef %result, ptr noundef %dresultds, ptr noundef %dresultdt, ptr noundef %dresultdr) unnamed_addr #6 align 2 personality ptr @__gxx_personality_v0 {
entry:
  %P = alloca %"class.OpenImageIO_v2_6_0::Vec3Param", align 4
  %coerce = alloca { <2 x float>, float }, align 4
  %dPdx = alloca %"class.OpenImageIO_v2_6_0::Vec3Param", align 4
  %coerce1 = alloca { <2 x float>, float }, align 4
  %dPdy = alloca %"class.OpenImageIO_v2_6_0::Vec3Param", align 4
  %coerce2 = alloca { <2 x float>, float }, align 4
  %dPdz = alloca %"class.OpenImageIO_v2_6_0::Vec3Param", align 4
  %coerce3 = alloca { <2 x float>, float }, align 4
  %this.addr = alloca ptr, align 8
  %filename.indirect_addr = alloca ptr, align 8
  %options.addr = alloca ptr, align 8
  %nchannels.addr = alloca i32, align 4
  %result.addr = alloca ptr, align 8
  %dresultds.addr = alloca ptr, align 8
  %dresultdt.addr = alloca ptr, align 8
  %dresultdr.addr = alloca ptr, align 8
  %thread_info = alloca ptr, align 8
  %texturefile = alloca ptr, align 8
  %agg.tmp = alloca %"class.OpenImageIO_v2_6_0::ustring", align 8
  %exn.slot = alloca ptr, align 8
  %ehselector.slot = alloca i32, align 4
  %agg.tmp6 = alloca %"class.OpenImageIO_v2_6_0::Vec3Param", align 4
  %agg.tmp7 = alloca %"class.OpenImageIO_v2_6_0::Vec3Param", align 4
  %agg.tmp8 = alloca %"class.OpenImageIO_v2_6_0::Vec3Param", align 4
  %agg.tmp9 = alloca %"class.OpenImageIO_v2_6_0::Vec3Param", align 4
  %agg.tmp6.coerce = alloca { <2 x float>, float }, align 4
  %agg.tmp7.coerce = alloca { <2 x float>, float }, align 4
  %agg.tmp8.coerce = alloca { <2 x float>, float }, align 4
  %agg.tmp9.coerce = alloca { <2 x float>, float }, align 4
  %0 = getelementptr inbounds { <2 x float>, float }, ptr %coerce, i32 0, i32 0
  store <2 x float> %P.coerce0, ptr %0, align 4
  %1 = getelementptr inbounds { <2 x float>, float }, ptr %coerce, i32 0, i32 1
  store float %P.coerce1, ptr %1, align 4
  call void @llvm.memcpy.p0.p0.i64(ptr align 4 %P, ptr align 4 %coerce, i64 12, i1 false)
  %2 = getelementptr inbounds { <2 x float>, float }, ptr %coerce1, i32 0, i32 0
  store <2 x float> %dPdx.coerce0, ptr %2, align 4
  %3 = getelementptr inbounds { <2 x float>, float }, ptr %coerce1, i32 0, i32 1
  store float %dPdx.coerce1, ptr %3, align 4
  call void @llvm.memcpy.p0.p0.i64(ptr align 4 %dPdx, ptr align 4 %coerce1, i64 12, i1 false)
  %4 = getelementptr inbounds { <2 x float>, float }, ptr %coerce2, i32 0, i32 0
  store <2 x float> %dPdy.coerce0, ptr %4, align 4
  %5 = getelementptr inbounds { <2 x float>, float }, ptr %coerce2, i32 0, i32 1
  store float %dPdy.coerce1, ptr %5, align 4
  call void @llvm.memcpy.p0.p0.i64(ptr align 4 %dPdy, ptr align 4 %coerce2, i64 12, i1 false)
  %6 = getelementptr inbounds { <2 x float>, float }, ptr %coerce3, i32 0, i32 0
  store <2 x float> %dPdz.coerce0, ptr %6, align 4
  %7 = getelementptr inbounds { <2 x float>, float }, ptr %coerce3, i32 0, i32 1
  store float %dPdz.coerce1, ptr %7, align 4
  call void @llvm.memcpy.p0.p0.i64(ptr align 4 %dPdz, ptr align 4 %coerce3, i64 12, i1 false)
  store ptr %this, ptr %this.addr, align 8
  store ptr %filename, ptr %filename.indirect_addr, align 8
  store ptr %options, ptr %options.addr, align 8
  store i32 %nchannels, ptr %nchannels.addr, align 4
  store ptr %result, ptr %result.addr, align 8
  store ptr %dresultds, ptr %dresultds.addr, align 8
  store ptr %dresultdt, ptr %dresultdt.addr, align 8
  store ptr %dresultdr, ptr %dresultdr.addr, align 8
  %this4 = load ptr, ptr %this.addr, align 8
  %m_imagecache = getelementptr inbounds %"class.OpenImageIO_v2_6_0::pvt::TextureSystemImpl", ptr %this4, i32 0, i32 1
  %8 = load ptr, ptr %m_imagecache, align 8
  %call = call noundef ptr @_ZN18OpenImageIO_v2_6_03pvt14ImageCacheImpl18get_perthread_infoEPNS0_23ImageCachePerThreadInfoE(ptr noundef nonnull align 64 dereferenceable(25280) %8, ptr noundef null)
  store ptr %call, ptr %thread_info, align 8
  call void @_ZN18OpenImageIO_v2_6_07ustringC2ERKS0_(ptr noundef nonnull align 8 dereferenceable(8) %agg.tmp, ptr noundef nonnull align 8 dereferenceable(8) %filename) #5
  %9 = load ptr, ptr %thread_info, align 8
  %call5 = invoke noundef ptr @_ZN18OpenImageIO_v2_6_03pvt17TextureSystemImpl16find_texturefileENS_7ustringEPNS0_23ImageCachePerThreadInfoEPKNS_10TextureOptE(ptr noundef nonnull align 8 dereferenceable(184) %this4, ptr noundef %agg.tmp, ptr noundef %9, ptr noundef null)
          to label %invoke.cont unwind label %lpad

invoke.cont:                                      ; preds = %entry
  call void @_ZN18OpenImageIO_v2_6_07ustringD2Ev(ptr noundef nonnull align 8 dereferenceable(8) %agg.tmp) #5
  store ptr %call5, ptr %texturefile, align 8
  %10 = load ptr, ptr %texturefile, align 8
  %11 = load ptr, ptr %thread_info, align 8
  %12 = load ptr, ptr %options.addr, align 8
  call void @llvm.memcpy.p0.p0.i64(ptr align 4 %agg.tmp6, ptr align 4 %P, i64 12, i1 false)
  call void @llvm.memcpy.p0.p0.i64(ptr align 4 %agg.tmp7, ptr align 4 %dPdx, i64 12, i1 false)
  call void @llvm.memcpy.p0.p0.i64(ptr align 4 %agg.tmp8, ptr align 4 %dPdy, i64 12, i1 false)
  call void @llvm.memcpy.p0.p0.i64(ptr align 4 %agg.tmp9, ptr align 4 %dPdz, i64 12, i1 false)
  %13 = load i32, ptr %nchannels.addr, align 4
  %14 = load ptr, ptr %result.addr, align 8
  %15 = load ptr, ptr %dresultds.addr, align 8
  %16 = load ptr, ptr %dresultdt.addr, align 8
  %17 = load ptr, ptr %dresultdr.addr, align 8
  call void @llvm.memcpy.p0.p0.i64(ptr align 4 %agg.tmp6.coerce, ptr align 4 %agg.tmp6, i64 12, i1 false)
  %18 = getelementptr inbounds { <2 x float>, float }, ptr %agg.tmp6.coerce, i32 0, i32 0
  %19 = load <2 x float>, ptr %18, align 4
  %20 = getelementptr inbounds { <2 x float>, float }, ptr %agg.tmp6.coerce, i32 0, i32 1
  %21 = load float, ptr %20, align 4
  call void @llvm.memcpy.p0.p0.i64(ptr align 4 %agg.tmp7.coerce, ptr align 4 %agg.tmp7, i64 12, i1 false)
  %22 = getelementptr inbounds { <2 x float>, float }, ptr %agg.tmp7.coerce, i32 0, i32 0
  %23 = load <2 x float>, ptr %22, align 4
  %24 = getelementptr inbounds { <2 x float>, float }, ptr %agg.tmp7.coerce, i32 0, i32 1
  %25 = load float, ptr %24, align 4
  call void @llvm.memcpy.p0.p0.i64(ptr align 4 %agg.tmp8.coerce, ptr align 4 %agg.tmp8, i64 12, i1 false)
  %26 = getelementptr inbounds { <2 x float>, float }, ptr %agg.tmp8.coerce, i32 0, i32 0
  %27 = load <2 x float>, ptr %26, align 4
  %28 = getelementptr inbounds { <2 x float>, float }, ptr %agg.tmp8.coerce, i32 0, i32 1
  %29 = load float, ptr %28, align 4
  call void @llvm.memcpy.p0.p0.i64(ptr align 4 %agg.tmp9.coerce, ptr align 4 %agg.tmp9, i64 12, i1 false)
  %30 = getelementptr inbounds { <2 x float>, float }, ptr %agg.tmp9.coerce, i32 0, i32 0
  %31 = load <2 x float>, ptr %30, align 4
  %32 = getelementptr inbounds { <2 x float>, float }, ptr %agg.tmp9.coerce, i32 0, i32 1
  %33 = load float, ptr %32, align 4
  %call10 = call noundef zeroext i1 @_ZN18OpenImageIO_v2_6_03pvt17TextureSystemImpl9texture3dEPNS_13TextureSystem13TextureHandleEPNS2_9PerthreadERNS_10TextureOptENS_9Vec3ParamIfEESA_SA_SA_iPfSB_SB_SB_(ptr noundef nonnull align 8 dereferenceable(184) %this4, ptr noundef %10, ptr noundef %11, ptr noundef nonnull align 8 dereferenceable(104) %12, <2 x float> %19, float %21, <2 x float> %23, float %25, <2 x float> %27, float %29, <2 x float> %31, float %33, i32 noundef %13, ptr noundef %14, ptr noundef %15, ptr noundef %16, ptr noundef %17)
  ret i1 %call10

lpad:                                             ; preds = %entry
  %34 = landingpad { ptr, i32 }
          cleanup
  %35 = extractvalue { ptr, i32 } %34, 0
  store ptr %35, ptr %exn.slot, align 8
  %36 = extractvalue { ptr, i32 } %34, 1
  store i32 %36, ptr %ehselector.slot, align 4
  call void @_ZN18OpenImageIO_v2_6_07ustringD2Ev(ptr noundef nonnull align 8 dereferenceable(8) %agg.tmp) #5
  br label %eh.resume

eh.resume:                                        ; preds = %lpad
  %exn = load ptr, ptr %exn.slot, align 8
  %sel = load i32, ptr %ehselector.slot, align 4
  %lpad.val = insertvalue { ptr, i32 } poison, ptr %exn, 0
  %lpad.val11 = insertvalue { ptr, i32 } %lpad.val, i32 %sel, 1
  resume { ptr, i32 } %lpad.val11
}