; Function Attrs: mustprogress uwtable
define hidden noundef zeroext i1 @_ZN18OpenImageIO_v2_6_03pvt17TextureSystemImpl9texture3dENS_7ustringERNS_10TextureOptENS_9Vec3ParamIfEES6_S6_S6_iPfS7_S7_S7_(ptr noundef nonnull align 8 dereferenceable(184) %this, ptr nocapture noundef readonly %filename, ptr noundef nonnull align 8 dereferenceable(104) %options, <2 x float> %P.coerce0, float %P.coerce1, <2 x float> %dPdx.coerce0, float %dPdx.coerce1, <2 x float> %dPdy.coerce0, float %dPdy.coerce1, <2 x float> %dPdz.coerce0, float %dPdz.coerce1, i32 noundef %nchannels, ptr noundef %result, ptr noundef %dresultds, ptr noundef %dresultdt, ptr noundef %dresultdr) unnamed_addr #5 align 2 personality ptr @__gxx_personality_v0 {
entry:
  %agg.tmp.i = alloca %"class.OpenImageIO_v2_6_0::ustring", align 8
  %m_imagecache = getelementptr inbounds i8, ptr %this, i64 8
  %0 = load ptr, ptr %m_imagecache, align 8
  %call = tail call noundef ptr @_ZN18OpenImageIO_v2_6_03pvt14ImageCacheImpl18get_perthread_infoEPNS0_23ImageCachePerThreadInfoE(ptr noundef nonnull align 64 dereferenceable(25280) %0, ptr noundef null)
  %1 = load ptr, ptr %filename, align 8
  call void @llvm.lifetime.start.p0(i64 8, ptr nonnull %agg.tmp.i)
  %2 = load ptr, ptr %m_imagecache, align 8
  store ptr %1, ptr %agg.tmp.i, align 8
  %call.i2 = call noundef ptr @_ZN18OpenImageIO_v2_6_03pvt14ImageCacheImpl9find_fileENS_7ustringEPNS0_23ImageCachePerThreadInfoEPFPNS_10ImageInputEvEPKNS_9ImageSpecEb(ptr noundef nonnull align 64 dereferenceable(25280) %2, ptr noundef nonnull %agg.tmp.i, ptr noundef %call, ptr noundef null, ptr noundef null, i1 noundef zeroext false)
  call void @llvm.lifetime.end.p0(i64 8, ptr nonnull %agg.tmp.i)
  %call10 = call noundef zeroext i1 @_ZN18OpenImageIO_v2_6_03pvt17TextureSystemImpl9texture3dEPNS_13TextureSystem13TextureHandleEPNS2_9PerthreadERNS_10TextureOptENS_9Vec3ParamIfEESA_SA_SA_iPfSB_SB_SB_(ptr noundef nonnull align 8 dereferenceable(184) %this, ptr noundef %call.i2, ptr noundef %call, ptr noundef nonnull align 8 dereferenceable(104) %options, <2 x float> %P.coerce0, float %P.coerce1, <2 x float> poison, float poison, <2 x float> poison, float poison, <2 x float> poison, float poison, i32 noundef %nchannels, ptr noundef %result, ptr noundef %dresultds, ptr noundef %dresultdt, ptr noundef %dresultdr)
  ret i1 %call10
}